target datalayout = "e-m:e-p270:32:32-p271:32:32-p272:64:64-i64:64-i128:128-f80:128-n8:16:32:64-S128"
target triple = "x86_64-pc-linux-gnu"

%struct.AVFormatContext = type { ptr, ptr, ptr, ptr, ptr, i32, i32, ptr, i32, ptr, i32, ptr, ptr, i64, i64, i64, i32, i32, i32, i64, i64, ptr, i32, i32, ptr, i32, i32, i32, i32, ptr, i64, i32, i32, %struct.AVIOInterruptCB, i32, i32, i32, i32, i64, i32, i32, i32, i32, i32, i32, i32, i32, i32, i32, i32, i32, i64, i32, i32, i32, i32, i32, ptr, ptr, ptr, ptr, i32, ptr, ptr, ptr, ptr, i32, ptr, ptr, i64, ptr, ptr, ptr, i64 }
%struct.AVIOInterruptCB = type { ptr, ptr }
%struct.DASHContext = type { ptr, ptr, ptr, i32, i32, i32, i64, i64, i32, i32, i32, i32, ptr, i32, i64, i64, [100 x i8], i64, i64, [1024 x i8], ptr, ptr, ptr, ptr, ptr, ptr, ptr, i32, ptr, i32, i32, ptr, ptr, ptr, i32, i64, i32, ptr, i32, i32, i32, i32, i32, i32, i32, i32, i32, i32, i64, i64, i32, i64, i32, %struct.AVRational, %struct.AVRational, i64 }
%struct.AVRational = type { i32, i32 }
%struct.OutputStream = type { ptr, i32, i32, ptr, ptr, ptr, i32, [1024 x i8], i64, i64, i32, i32, i32, i32, i64, i64, i64, ptr, i64, i64, i64, i64, i64, i32, i32, i32, i32, ptr, ptr, ptr, ptr, ptr, [100 x i8], i32, [1024 x i8], [1024 x i8], [1024 x i8], double, %struct.AVProducerReferenceTime, [100 x i8], i32, i64, i32, i32, i64, %struct.AVRational, i32 }
%struct.AVProducerReferenceTime = type { i64, i32 }

; Function Attrs: alwaysinline nounwind uwtable
define internal i64 @avio_tell(ptr noundef %0) #4 {
  %2 = alloca ptr, align 8
  store ptr %0, ptr %2, align 8, !tbaa !206
  %3 = load ptr, ptr %2, align 8, !tbaa !206
  %4 = call i64 @avio_seek(ptr noundef %3, i64 noundef 0, i32 noundef 1)
  ret i64 %4
}

; Function Attrs: nounwind uwtable
define internal i32 @flush_dynbuf(ptr noundef %0, ptr noundef %1, ptr noundef %2) #0 {
  %4 = alloca i32, align 4
  %5 = alloca ptr, align 8
  %6 = alloca ptr, align 8
  %7 = alloca ptr, align 8
  %8 = alloca ptr, align 8
  %9 = alloca i32, align 4
  store ptr %0, ptr %5, align 8, !tbaa !26
  store ptr %1, ptr %6, align 8, !tbaa !35
  store ptr %2, ptr %7, align 8, !tbaa !202
  call void @llvm.lifetime.start.p0(i64 8, ptr %8) #13
  %10 = load ptr, ptr %6, align 8, !tbaa !35
  %11 = getelementptr inbounds nuw %struct.OutputStream, ptr %10, i32 0, i32 0
  %12 = load ptr, ptr %11, align 8, !tbaa !36
  %13 = getelementptr inbounds nuw %struct.AVFormatContext, ptr %12, i32 0, i32 4
  %14 = load ptr, ptr %13, align 8, !tbaa !117
  %15 = icmp ne ptr %14, null
  br i1 %15, label %17, label %16

16:                                               ; preds = %3
  store i32 -22, ptr %4, align 4
  store i32 1, ptr %9, align 4
  br label %85

17:                                               ; preds = %3
  %18 = load ptr, ptr %6, align 8, !tbaa !35
  %19 = getelementptr inbounds nuw %struct.OutputStream, ptr %18, i32 0, i32 0
  %20 = load ptr, ptr %19, align 8, !tbaa !36
  %21 = call i32 @av_write_frame(ptr noundef %20, ptr noundef null)
  %22 = load ptr, ptr %6, align 8, !tbaa !35
  %23 = getelementptr inbounds nuw %struct.OutputStream, ptr %22, i32 0, i32 0
  %24 = load ptr, ptr %23, align 8, !tbaa !36
  %25 = getelementptr inbounds nuw %struct.AVFormatContext, ptr %24, i32 0, i32 4
  %26 = load ptr, ptr %25, align 8, !tbaa !117
  call void @avio_flush(ptr noundef %26)
  %27 = load ptr, ptr %5, align 8, !tbaa !26
  %28 = getelementptr inbounds nuw %struct.DASHContext, ptr %27, i32 0, i32 11
  %29 = load i32, ptr %28, align 4, !tbaa !113
  %30 = icmp ne i32 %29, 0
  br i1 %30, label %72, label %31

31:                                               ; preds = %17
  %32 = load ptr, ptr %6, align 8, !tbaa !35
  %33 = getelementptr inbounds nuw %struct.OutputStream, ptr %32, i32 0, i32 0
  %34 = load ptr, ptr %33, align 8, !tbaa !36
  %35 = getelementptr inbounds nuw %struct.AVFormatContext, ptr %34, i32 0, i32 4
  %36 = load ptr, ptr %35, align 8, !tbaa !117
  %37 = call i32 @avio_close_dyn_buf(ptr noundef %36, ptr noundef %8)
  %38 = load ptr, ptr %7, align 8, !tbaa !202
  store i32 %37, ptr %38, align 4, !tbaa !28
  %39 = load ptr, ptr %6, align 8, !tbaa !35
  %40 = getelementptr inbounds nuw %struct.OutputStream, ptr %39, i32 0, i32 0
  %41 = load ptr, ptr %40, align 8, !tbaa !36
  %42 = getelementptr inbounds nuw %struct.AVFormatContext, ptr %41, i32 0, i32 4
  store ptr null, ptr %42, align 8, !tbaa !117
  %43 = load ptr, ptr %6, align 8, !tbaa !35
  %44 = getelementptr inbounds nuw %struct.OutputStream, ptr %43, i32 0, i32 3
  %45 = load ptr, ptr %44, align 8, !tbaa !122
  %46 = icmp ne ptr %45, null
  br i1 %46, label %47, label %63

47:                                               ; preds = %31
  %48 = load ptr, ptr %6, align 8, !tbaa !35
  %49 = getelementptr inbounds nuw %struct.OutputStream, ptr %48, i32 0, i32 3
  %50 = load ptr, ptr %49, align 8, !tbaa !122
  %51 = load ptr, ptr %8, align 8, !tbaa !116
  %52 = load ptr, ptr %6, align 8, !tbaa !35
  %53 = getelementptr inbounds nuw %struct.OutputStream, ptr %52, i32 0, i32 33
  %54 = load i32, ptr %53, align 4, !tbaa !123
  %55 = sext i32 %54 to i64
  %56 = getelementptr inbounds i8, ptr %51, i64 %55
  %57 = load ptr, ptr %7, align 8, !tbaa !202
  %58 = load i32, ptr %57, align 4, !tbaa !28
  %59 = load ptr, ptr %6, align 8, !tbaa !35
  %60 = getelementptr inbounds nuw %struct.OutputStream, ptr %59, i32 0, i32 33
  %61 = load i32, ptr %60, align 4, !tbaa !123
  %62 = sub nsw i32 %58, %61
  call void @avio_write(ptr noundef %50, ptr noundef %56, i32 noundef %62)
  br label %63

63:                                               ; preds = %47, %31
  %64 = load ptr, ptr %6, align 8, !tbaa !35
  %65 = getelementptr inbounds nuw %struct.OutputStream, ptr %64, i32 0, i32 33
  store i32 0, ptr %65, align 4, !tbaa !123
  %66 = load ptr, ptr %8, align 8, !tbaa !116
  call void @av_free(ptr noundef %66)
  %67 = load ptr, ptr %6, align 8, !tbaa !35
  %68 = getelementptr inbounds nuw %struct.OutputStream, ptr %67, i32 0, i32 0
  %69 = load ptr, ptr %68, align 8, !tbaa !36
  %70 = getelementptr inbounds nuw %struct.AVFormatContext, ptr %69, i32 0, i32 4
  %71 = call i32 @avio_open_dyn_buf(ptr noundef %70)
  store i32 %71, ptr %4, align 4
  store i32 1, ptr %9, align 4
  br label %85

72:                                               ; preds = %17
  %73 = load ptr, ptr %6, align 8, !tbaa !35
  %74 = getelementptr inbounds nuw %struct.OutputStream, ptr %73, i32 0, i32 0
  %75 = load ptr, ptr %74, align 8, !tbaa !36
  %76 = getelementptr inbounds nuw %struct.AVFormatContext, ptr %75, i32 0, i32 4
  %77 = load ptr, ptr %76, align 8, !tbaa !117
  %78 = call i64 @avio_tell(ptr noundef %77)
  %79 = load ptr, ptr %6, align 8, !tbaa !35
  %80 = getelementptr inbounds nuw %struct.OutputStream, ptr %79, i32 0, i32 9
  %81 = load i64, ptr %80, align 8, !tbaa !201
  %82 = sub nsw i64 %78, %81
  %83 = trunc i64 %82 to i32
  %84 = load ptr, ptr %7, align 8, !tbaa !202
  store i32 %83, ptr %84, align 4, !tbaa !28
  store i32 0, ptr %4, align 4
  store i32 1, ptr %9, align 4
  br label %85

85:                                               ; preds = %72, %63, %16
  call void @llvm.lifetime.end.p0(i64 8, ptr %8) #13
  %86 = load i32, ptr %4, align 4
  ret i32 %86
}