; Function Attrs: nounwind uwtable
define internal fastcc i32 @flush_dynbuf(ptr noundef readonly captures(none) %0, ptr noundef captures(none) %1, ptr noundef nonnull writeonly captures(none) %2) unnamed_addr #0 {
  %4 = alloca ptr, align 8
  call void @llvm.lifetime.start.p0(i64 8, ptr nonnull %4) #15
  %5 = load ptr, ptr %1, align 8, !tbaa !30
  %6 = getelementptr inbounds nuw i8, ptr %5, i64 32
  %7 = load ptr, ptr %6, align 8, !tbaa !114
  %.not = icmp eq ptr %7, null
  br i1 %.not, label %43, label %8

8:                                                ; preds = %3
  %9 = tail call i32 @av_write_frame(ptr noundef nonnull %5, ptr noundef null) #15
  %10 = load ptr, ptr %1, align 8, !tbaa !30
  %11 = getelementptr inbounds nuw i8, ptr %10, i64 32
  %12 = load ptr, ptr %11, align 8, !tbaa !114
  tail call void @avio_flush(ptr noundef %12) #15
  %13 = getelementptr inbounds nuw i8, ptr %0, i64 68
  %14 = load i32, ptr %13, align 4, !tbaa !42
  %.not18 = icmp eq i32 %14, 0
  %15 = load ptr, ptr %1, align 8, !tbaa !30
  %16 = getelementptr inbounds nuw i8, ptr %15, i64 32
  %17 = load ptr, ptr %16, align 8, !tbaa !114
  br i1 %.not18, label %18, label %37

18:                                               ; preds = %8
  %19 = call i32 @avio_close_dyn_buf(ptr noundef %17, ptr noundef nonnull %4) #15
  store i32 %19, ptr %2, align 4, !tbaa !39
  %20 = load ptr, ptr %1, align 8, !tbaa !30
  %21 = getelementptr inbounds nuw i8, ptr %20, i64 32
  store ptr null, ptr %21, align 8, !tbaa !114
  %22 = getelementptr inbounds nuw i8, ptr %1, i64 16
  %23 = load ptr, ptr %22, align 8, !tbaa !120
  %.not19 = icmp eq ptr %23, null
  br i1 %.not19, label %31, label %24

24:                                               ; preds = %18
  %25 = load ptr, ptr %4, align 8, !tbaa !119
  %26 = getelementptr inbounds nuw i8, ptr %1, i64 1332
  %27 = load i32, ptr %26, align 4, !tbaa !121
  %28 = sext i32 %27 to i64
  %29 = getelementptr inbounds i8, ptr %25, i64 %28
  %30 = sub nsw i32 %19, %27
  call void @avio_write(ptr noundef nonnull %23, ptr noundef %29, i32 noundef %30) #15
  br label %31

31:                                               ; preds = %24, %18
  %32 = getelementptr inbounds nuw i8, ptr %1, i64 1332
  store i32 0, ptr %32, align 4, !tbaa !121
  %33 = load ptr, ptr %4, align 8, !tbaa !119
  call void @av_free(ptr noundef %33) #15
  %34 = load ptr, ptr %1, align 8, !tbaa !30
  %35 = getelementptr inbounds nuw i8, ptr %34, i64 32
  %36 = call i32 @avio_open_dyn_buf(ptr noundef nonnull %35) #15
  br label %43

37:                                               ; preds = %8
  %38 = tail call i64 @avio_seek(ptr noundef %17, i64 noundef 0, i32 noundef 1) #15
  %39 = getelementptr inbounds nuw i8, ptr %1, i64 1080
  %40 = load i64, ptr %39, align 8, !tbaa !41
  %41 = sub nsw i64 %38, %40
  %42 = trunc i64 %41 to i32
  store i32 %42, ptr %2, align 4, !tbaa !39
  br label %43

43:                                               ; preds = %3, %37, %31
  %.0 = phi i32 [ 0, %37 ], [ %36, %31 ], [ -22, %3 ]
  call void @llvm.lifetime.end.p0(i64 8, ptr nonnull %4) #15
  ret i32 %.0
}